; Function Attrs: nounwind uwtable
define hidden i32 @psa_driver_wrapper_hash_abort(ptr noundef %0) local_unnamed_addr #1 {
  %2 = load i32, ptr %0, align 8
  %cond = icmp eq i32 %2, 1
  br i1 %cond, label %3, label %6

3:                                                ; preds = %1
  %4 = getelementptr inbounds nuw i8, ptr %0, i64 8
  %5 = tail call i32 @mbedtls_psa_hash_abort(ptr noundef nonnull %4) #5
  br label %6

6:                                                ; preds = %1, %3
  %.0 = phi i32 [ %5, %3 ], [ -137, %1 ]
  ret i32 %.0
}